target datalayout = "e-m:e-p270:32:32-p271:32:32-p272:64:64-i64:64-i128:128-f80:128-n8:16:32:64-S128"
target triple = "x86_64-pc-linux-gnu"

%struct.option = type { i32, i32, ptr, ptr, ptr, ptr, i32, ptr, i64, ptr, i64, ptr }

@.str = private unnamed_addr constant [5 x i8] c"show\00", align 1
@.str.1 = private unnamed_addr constant [5 x i8] c"list\00", align 1
@.str.2 = private unnamed_addr constant [7 x i8] c"expire\00", align 1
@.str.3 = private unnamed_addr constant [7 x i8] c"delete\00", align 1
@.str.4 = private unnamed_addr constant [7 x i8] c"exists\00", align 1
@reflog_usage = internal constant [6 x ptr] [ptr @.str.5, ptr @.str.7, ptr @.str.37, ptr @.str.40, ptr @.str.42, ptr null], align 16

; Function Attrs: nounwind uwtable
define dso_local i32 @cmd_reflog(i32 noundef %0, ptr noundef %1, ptr noundef %2, ptr noundef %3) #0 {
  %5 = alloca i32, align 4
  %6 = alloca i32, align 4
  %7 = alloca ptr, align 8
  %8 = alloca ptr, align 8
  %9 = alloca ptr, align 8
  %10 = alloca ptr, align 8
  %11 = alloca [6 x %struct.option], align 16
  %12 = alloca i32, align 4
  store i32 %0, ptr %6, align 4, !tbaa !4
  store ptr %1, ptr %7, align 8, !tbaa !8
  store ptr %2, ptr %8, align 8, !tbaa !11
  store ptr %3, ptr %9, align 8, !tbaa !13
  call void @llvm.lifetime.start.p0(i64 8, ptr %10) #9
  store ptr null, ptr %10, align 8, !tbaa !15
  call void @llvm.lifetime.start.p0(i64 528, ptr %11) #9
  %13 = getelementptr inbounds nuw %struct.option, ptr %11, i32 0, i32 0
  store i32 4, ptr %13, align 8, !tbaa !16
  %14 = getelementptr inbounds nuw %struct.option, ptr %11, i32 0, i32 1
  store i32 0, ptr %14, align 4, !tbaa !19
  %15 = getelementptr inbounds nuw %struct.option, ptr %11, i32 0, i32 2
  store ptr @.str, ptr %15, align 8, !tbaa !20
  %16 = getelementptr inbounds nuw %struct.option, ptr %11, i32 0, i32 3
  store ptr %10, ptr %16, align 8, !tbaa !21
  %17 = getelementptr inbounds nuw %struct.option, ptr %11, i32 0, i32 4
  store ptr null, ptr %17, align 8, !tbaa !22
  %18 = getelementptr inbounds nuw %struct.option, ptr %11, i32 0, i32 5
  store ptr null, ptr %18, align 8, !tbaa !23
  %19 = getelementptr inbounds nuw %struct.option, ptr %11, i32 0, i32 6
  store i32 0, ptr %19, align 8, !tbaa !24
  %20 = getelementptr i8, ptr %11, i64 44
  call void @llvm.memset.p0.i64(ptr align 4 %20, i8 0, i64 4, i1 false)
  %21 = getelementptr inbounds nuw %struct.option, ptr %11, i32 0, i32 7
  store ptr null, ptr %21, align 8, !tbaa !25
  %22 = getelementptr inbounds nuw %struct.option, ptr %11, i32 0, i32 8
  store i64 0, ptr %22, align 8, !tbaa !26
  %23 = getelementptr inbounds nuw %struct.option, ptr %11, i32 0, i32 9
  store ptr null, ptr %23, align 8, !tbaa !27
  %24 = getelementptr inbounds nuw %struct.option, ptr %11, i32 0, i32 10
  store i64 0, ptr %24, align 8, !tbaa !28
  %25 = getelementptr inbounds nuw %struct.option, ptr %11, i32 0, i32 11
  store ptr @cmd_reflog_show, ptr %25, align 8, !tbaa !29
  %26 = getelementptr inbounds %struct.option, ptr %11, i64 1
  %27 = getelementptr inbounds nuw %struct.option, ptr %26, i32 0, i32 0
  store i32 4, ptr %27, align 8, !tbaa !16
  %28 = getelementptr inbounds nuw %struct.option, ptr %26, i32 0, i32 1
  store i32 0, ptr %28, align 4, !tbaa !19
  %29 = getelementptr inbounds nuw %struct.option, ptr %26, i32 0, i32 2
  store ptr @.str.1, ptr %29, align 8, !tbaa !20
  %30 = getelementptr inbounds nuw %struct.option, ptr %26, i32 0, i32 3
  store ptr %10, ptr %30, align 8, !tbaa !21
  %31 = getelementptr inbounds nuw %struct.option, ptr %26, i32 0, i32 4
  store ptr null, ptr %31, align 8, !tbaa !22
  %32 = getelementptr inbounds nuw %struct.option, ptr %26, i32 0, i32 5
  store ptr null, ptr %32, align 8, !tbaa !23
  %33 = getelementptr inbounds nuw %struct.option, ptr %26, i32 0, i32 6
  store i32 0, ptr %33, align 8, !tbaa !24
  %34 = getelementptr i8, ptr %26, i64 44
  call void @llvm.memset.p0.i64(ptr align 4 %34, i8 0, i64 4, i1 false)
  %35 = getelementptr inbounds nuw %struct.option, ptr %26, i32 0, i32 7
  store ptr null, ptr %35, align 8, !tbaa !25
  %36 = getelementptr inbounds nuw %struct.option, ptr %26, i32 0, i32 8
  store i64 0, ptr %36, align 8, !tbaa !26
  %37 = getelementptr inbounds nuw %struct.option, ptr %26, i32 0, i32 9
  store ptr null, ptr %37, align 8, !tbaa !27
  %38 = getelementptr inbounds nuw %struct.option, ptr %26, i32 0, i32 10
  store i64 0, ptr %38, align 8, !tbaa !28
  %39 = getelementptr inbounds nuw %struct.option, ptr %26, i32 0, i32 11
  store ptr @cmd_reflog_list, ptr %39, align 8, !tbaa !29
  %40 = getelementptr inbounds %struct.option, ptr %11, i64 2
  %41 = getelementptr inbounds nuw %struct.option, ptr %40, i32 0, i32 0
  store i32 4, ptr %41, align 8, !tbaa !16
  %42 = getelementptr inbounds nuw %struct.option, ptr %40, i32 0, i32 1
  store i32 0, ptr %42, align 4, !tbaa !19
  %43 = getelementptr inbounds nuw %struct.option, ptr %40, i32 0, i32 2
  store ptr @.str.2, ptr %43, align 8, !tbaa !20
  %44 = getelementptr inbounds nuw %struct.option, ptr %40, i32 0, i32 3
  store ptr %10, ptr %44, align 8, !tbaa !21
  %45 = getelementptr inbounds nuw %struct.option, ptr %40, i32 0, i32 4
  store ptr null, ptr %45, align 8, !tbaa !22
  %46 = getelementptr inbounds nuw %struct.option, ptr %40, i32 0, i32 5
  store ptr null, ptr %46, align 8, !tbaa !23
  %47 = getelementptr inbounds nuw %struct.option, ptr %40, i32 0, i32 6
  store i32 0, ptr %47, align 8, !tbaa !24
  %48 = getelementptr i8, ptr %40, i64 44
  call void @llvm.memset.p0.i64(ptr align 4 %48, i8 0, i64 4, i1 false)
  %49 = getelementptr inbounds nuw %struct.option, ptr %40, i32 0, i32 7
  store ptr null, ptr %49, align 8, !tbaa !25
  %50 = getelementptr inbounds nuw %struct.option, ptr %40, i32 0, i32 8
  store i64 0, ptr %50, align 8, !tbaa !26
  %51 = getelementptr inbounds nuw %struct.option, ptr %40, i32 0, i32 9
  store ptr null, ptr %51, align 8, !tbaa !27
  %52 = getelementptr inbounds nuw %struct.option, ptr %40, i32 0, i32 10
  store i64 0, ptr %52, align 8, !tbaa !28
  %53 = getelementptr inbounds nuw %struct.option, ptr %40, i32 0, i32 11
  store ptr @cmd_reflog_expire, ptr %53, align 8, !tbaa !29
  %54 = getelementptr inbounds %struct.option, ptr %11, i64 3
  %55 = getelementptr inbounds nuw %struct.option, ptr %54, i32 0, i32 0
  store i32 4, ptr %55, align 8, !tbaa !16
  %56 = getelementptr inbounds nuw %struct.option, ptr %54, i32 0, i32 1
  store i32 0, ptr %56, align 4, !tbaa !19
  %57 = getelementptr inbounds nuw %struct.option, ptr %54, i32 0, i32 2
  store ptr @.str.3, ptr %57, align 8, !tbaa !20
  %58 = getelementptr inbounds nuw %struct.option, ptr %54, i32 0, i32 3
  store ptr %10, ptr %58, align 8, !tbaa !21
  %59 = getelementptr inbounds nuw %struct.option, ptr %54, i32 0, i32 4
  store ptr null, ptr %59, align 8, !tbaa !22
  %60 = getelementptr inbounds nuw %struct.option, ptr %54, i32 0, i32 5
  store ptr null, ptr %60, align 8, !tbaa !23
  %61 = getelementptr inbounds nuw %struct.option, ptr %54, i32 0, i32 6
  store i32 0, ptr %61, align 8, !tbaa !24
  %62 = getelementptr i8, ptr %54, i64 44
  call void @llvm.memset.p0.i64(ptr align 4 %62, i8 0, i64 4, i1 false)
  %63 = getelementptr inbounds nuw %struct.option, ptr %54, i32 0, i32 7
  store ptr null, ptr %63, align 8, !tbaa !25
  %64 = getelementptr inbounds nuw %struct.option, ptr %54, i32 0, i32 8
  store i64 0, ptr %64, align 8, !tbaa !26
  %65 = getelementptr inbounds nuw %struct.option, ptr %54, i32 0, i32 9
  store ptr null, ptr %65, align 8, !tbaa !27
  %66 = getelementptr inbounds nuw %struct.option, ptr %54, i32 0, i32 10
  store i64 0, ptr %66, align 8, !tbaa !28
  %67 = getelementptr inbounds nuw %struct.option, ptr %54, i32 0, i32 11
  store ptr @cmd_reflog_delete, ptr %67, align 8, !tbaa !29
  %68 = getelementptr inbounds %struct.option, ptr %11, i64 4
  %69 = getelementptr inbounds nuw %struct.option, ptr %68, i32 0, i32 0
  store i32 4, ptr %69, align 8, !tbaa !16
  %70 = getelementptr inbounds nuw %struct.option, ptr %68, i32 0, i32 1
  store i32 0, ptr %70, align 4, !tbaa !19
  %71 = getelementptr inbounds nuw %struct.option, ptr %68, i32 0, i32 2
  store ptr @.str.4, ptr %71, align 8, !tbaa !20
  %72 = getelementptr inbounds nuw %struct.option, ptr %68, i32 0, i32 3
  store ptr %10, ptr %72, align 8, !tbaa !21
  %73 = getelementptr inbounds nuw %struct.option, ptr %68, i32 0, i32 4
  store ptr null, ptr %73, align 8, !tbaa !22
  %74 = getelementptr inbounds nuw %struct.option, ptr %68, i32 0, i32 5
  store ptr null, ptr %74, align 8, !tbaa !23
  %75 = getelementptr inbounds nuw %struct.option, ptr %68, i32 0, i32 6
  store i32 0, ptr %75, align 8, !tbaa !24
  %76 = getelementptr i8, ptr %68, i64 44
  call void @llvm.memset.p0.i64(ptr align 4 %76, i8 0, i64 4, i1 false)
  %77 = getelementptr inbounds nuw %struct.option, ptr %68, i32 0, i32 7
  store ptr null, ptr %77, align 8, !tbaa !25
  %78 = getelementptr inbounds nuw %struct.option, ptr %68, i32 0, i32 8
  store i64 0, ptr %78, align 8, !tbaa !26
  %79 = getelementptr inbounds nuw %struct.option, ptr %68, i32 0, i32 9
  store ptr null, ptr %79, align 8, !tbaa !27
  %80 = getelementptr inbounds nuw %struct.option, ptr %68, i32 0, i32 10
  store i64 0, ptr %80, align 8, !tbaa !28
  %81 = getelementptr inbounds nuw %struct.option, ptr %68, i32 0, i32 11
  store ptr @cmd_reflog_exists, ptr %81, align 8, !tbaa !29
  %82 = getelementptr inbounds %struct.option, ptr %11, i64 5
  call void @llvm.memset.p0.i64(ptr align 8 %82, i8 0, i64 88, i1 false)
  %83 = getelementptr inbounds nuw %struct.option, ptr %82, i32 0, i32 0
  store i32 0, ptr %83, align 8, !tbaa !16
  %84 = load i32, ptr %6, align 4, !tbaa !4
  %85 = load ptr, ptr %7, align 8, !tbaa !8
  %86 = load ptr, ptr %8, align 8, !tbaa !11
  %87 = getelementptr inbounds [6 x %struct.option], ptr %11, i64 0, i64 0
  %88 = call i32 @parse_options(i32 noundef %84, ptr noundef %85, ptr noundef %86, ptr noundef %87, ptr noundef @reflog_usage, i32 noundef 141)
  store i32 %88, ptr %6, align 4, !tbaa !4
  %89 = load ptr, ptr %10, align 8, !tbaa !15
  %90 = icmp ne ptr %89, null
  br i1 %90, label %91, label %100

91:                                               ; preds = %4
  %92 = load ptr, ptr %10, align 8, !tbaa !15
  %93 = load i32, ptr %6, align 4, !tbaa !4
  %94 = sub nsw i32 %93, 1
  %95 = load ptr, ptr %7, align 8, !tbaa !8
  %96 = getelementptr inbounds ptr, ptr %95, i64 1
  %97 = load ptr, ptr %8, align 8, !tbaa !11
  %98 = load ptr, ptr %9, align 8, !tbaa !13
  %99 = call i32 %92(i32 noundef %94, ptr noundef %96, ptr noundef %97, ptr noundef %98)
  store i32 %99, ptr %5, align 4
  store i32 1, ptr %12, align 4
  br label %106

100:                                              ; preds = %4
  %101 = load i32, ptr %6, align 4, !tbaa !4
  %102 = load ptr, ptr %7, align 8, !tbaa !8
  %103 = load ptr, ptr %8, align 8, !tbaa !11
  %104 = load ptr, ptr %9, align 8, !tbaa !13
  %105 = call i32 @cmd_log_reflog(i32 noundef %101, ptr noundef %102, ptr noundef %103, ptr noundef %104)
  store i32 %105, ptr %5, align 4
  store i32 1, ptr %12, align 4
  br label %106

106:                                              ; preds = %100, %91
  call void @llvm.lifetime.end.p0(i64 528, ptr %11) #9
  call void @llvm.lifetime.end.p0(i64 8, ptr %10) #9
  %107 = load i32, ptr %5, align 4
  ret i32 %107
}