; Function Attrs: nounwind uwtable
define dso_local i32 @cmd_reflog(i32 noundef %0, ptr noundef %1, ptr noundef %2, ptr noundef %3) local_unnamed_addr #0 {
  %5 = alloca ptr, align 8
  %6 = alloca [6 x %struct.option], align 16
  call void @llvm.lifetime.start.p0(i64 8, ptr nonnull %5) #13
  store ptr null, ptr %5, align 8, !tbaa !4
  call void @llvm.lifetime.start.p0(i64 528, ptr nonnull %6) #13
  store i32 4, ptr %6, align 16, !tbaa !8
  %7 = getelementptr inbounds nuw i8, ptr %6, i64 4
  store i32 0, ptr %7, align 4, !tbaa !13
  %8 = getelementptr inbounds nuw i8, ptr %6, i64 8
  store ptr @.str, ptr %8, align 8, !tbaa !14
  %9 = getelementptr inbounds nuw i8, ptr %6, i64 16
  store ptr %5, ptr %9, align 16, !tbaa !15
  %10 = getelementptr inbounds nuw i8, ptr %6, i64 24
  %11 = getelementptr inbounds nuw i8, ptr %6, i64 80
  call void @llvm.memset.p0.i64(ptr noundef nonnull align 8 dereferenceable(56) %10, i8 0, i64 56, i1 false)
  store ptr @cmd_reflog_show, ptr %11, align 16, !tbaa !16
  %12 = getelementptr inbounds nuw i8, ptr %6, i64 88
  store i32 4, ptr %12, align 8, !tbaa !8
  %13 = getelementptr inbounds nuw i8, ptr %6, i64 92
  store i32 0, ptr %13, align 4, !tbaa !13
  %14 = getelementptr inbounds nuw i8, ptr %6, i64 96
  store ptr @.str.1, ptr %14, align 16, !tbaa !14
  %15 = getelementptr inbounds nuw i8, ptr %6, i64 104
  store ptr %5, ptr %15, align 8, !tbaa !15
  %16 = getelementptr inbounds nuw i8, ptr %6, i64 112
  %17 = getelementptr inbounds nuw i8, ptr %6, i64 168
  call void @llvm.memset.p0.i64(ptr noundef nonnull align 16 dereferenceable(56) %16, i8 0, i64 56, i1 false)
  store ptr @cmd_reflog_list, ptr %17, align 8, !tbaa !16
  %18 = getelementptr inbounds nuw i8, ptr %6, i64 176
  store i32 4, ptr %18, align 16, !tbaa !8
  %19 = getelementptr inbounds nuw i8, ptr %6, i64 180
  store i32 0, ptr %19, align 4, !tbaa !13
  %20 = getelementptr inbounds nuw i8, ptr %6, i64 184
  store ptr @.str.2, ptr %20, align 8, !tbaa !14
  %21 = getelementptr inbounds nuw i8, ptr %6, i64 192
  store ptr %5, ptr %21, align 16, !tbaa !15
  %22 = getelementptr inbounds nuw i8, ptr %6, i64 200
  %23 = getelementptr inbounds nuw i8, ptr %6, i64 256
  call void @llvm.memset.p0.i64(ptr noundef nonnull align 8 dereferenceable(56) %22, i8 0, i64 56, i1 false)
  store ptr @cmd_reflog_expire, ptr %23, align 16, !tbaa !16
  %24 = getelementptr inbounds nuw i8, ptr %6, i64 264
  store i32 4, ptr %24, align 8, !tbaa !8
  %25 = getelementptr inbounds nuw i8, ptr %6, i64 268
  store i32 0, ptr %25, align 4, !tbaa !13
  %26 = getelementptr inbounds nuw i8, ptr %6, i64 272
  store ptr @.str.3, ptr %26, align 16, !tbaa !14
  %27 = getelementptr inbounds nuw i8, ptr %6, i64 280
  store ptr %5, ptr %27, align 8, !tbaa !15
  %28 = getelementptr inbounds nuw i8, ptr %6, i64 288
  %29 = getelementptr inbounds nuw i8, ptr %6, i64 344
  call void @llvm.memset.p0.i64(ptr noundef nonnull align 16 dereferenceable(56) %28, i8 0, i64 56, i1 false)
  store ptr @cmd_reflog_delete, ptr %29, align 8, !tbaa !16
  %30 = getelementptr inbounds nuw i8, ptr %6, i64 352
  store i32 4, ptr %30, align 16, !tbaa !8
  %31 = getelementptr inbounds nuw i8, ptr %6, i64 356
  store i32 0, ptr %31, align 4, !tbaa !13
  %32 = getelementptr inbounds nuw i8, ptr %6, i64 360
  store ptr @.str.4, ptr %32, align 8, !tbaa !14
  %33 = getelementptr inbounds nuw i8, ptr %6, i64 368
  store ptr %5, ptr %33, align 16, !tbaa !15
  %34 = getelementptr inbounds nuw i8, ptr %6, i64 376
  %35 = getelementptr inbounds nuw i8, ptr %6, i64 432
  call void @llvm.memset.p0.i64(ptr noundef nonnull align 8 dereferenceable(56) %34, i8 0, i64 56, i1 false)
  store ptr @cmd_reflog_exists, ptr %35, align 16, !tbaa !16
  %36 = getelementptr inbounds nuw i8, ptr %6, i64 440
  call void @llvm.memset.p0.i64(ptr noundef nonnull align 8 dereferenceable(88) %36, i8 0, i64 88, i1 false)
  %37 = call i32 @parse_options(i32 noundef %0, ptr noundef %1, ptr noundef %2, ptr noundef nonnull %6, ptr noundef nonnull @reflog_usage, i32 noundef 141) #13
  %38 = load ptr, ptr %5, align 8, !tbaa !4
  %.not = icmp eq ptr %38, null
  br i1 %.not, label %43, label %39

39:                                               ; preds = %4
  %40 = add nsw i32 %37, -1
  %41 = getelementptr inbounds nuw i8, ptr %1, i64 8
  %42 = call i32 %38(i32 noundef %40, ptr noundef nonnull %41, ptr noundef %2, ptr noundef %3) #13
  br label %45

43:                                               ; preds = %4
  %44 = call i32 @cmd_log_reflog(i32 noundef %37, ptr noundef %1, ptr noundef %2, ptr noundef %3) #13
  br label %45

45:                                               ; preds = %43, %39
  %.0 = phi i32 [ %42, %39 ], [ %44, %43 ]
  call void @llvm.lifetime.end.p0(i64 528, ptr nonnull %6) #13
  call void @llvm.lifetime.end.p0(i64 8, ptr nonnull %5) #13
  ret i32 %.0
}